target datalayout = "e-m:e-p270:32:32-p271:32:32-p272:64:64-i64:64-i128:128-f80:128-n8:16:32:64-S128"
target triple = "x86_64-unknown-linux-gnu"

%"class.rocksdb::MemTableRep" = type { ptr, ptr }
%"struct.rocksdb::(anonymous namespace)::Node" = type <{ %"struct.std::atomic.29", [1 x i8], [7 x i8] }>
%"struct.std::atomic.29" = type { %"struct.std::__atomic_base.30" }
%"struct.std::__atomic_base.30" = type { ptr }

; Function Attrs: mustprogress uwtable
define internal noundef ptr @_ZN7rocksdb12_GLOBAL__N_115HashLinkListRep8AllocateEmPPc(ptr noundef nonnull align 8 dereferenceable(69) %this, i64 noundef %len, ptr noundef %buf) unnamed_addr #0 align 2 {
entry:
  %this.addr = alloca ptr, align 8
  %len.addr = alloca i64, align 8
  %buf.addr = alloca ptr, align 8
  %mem = alloca ptr, align 8
  %x = alloca ptr, align 8
  store ptr %this, ptr %this.addr, align 8
  store i64 %len, ptr %len.addr, align 8
  store ptr %buf, ptr %buf.addr, align 8
  %this1 = load ptr, ptr %this.addr, align 8
  %allocator_ = getelementptr inbounds %"class.rocksdb::MemTableRep", ptr %this1, i32 0, i32 1
  %0 = load ptr, ptr %allocator_, align 8
  %1 = load i64, ptr %len.addr, align 8
  %add = add i64 16, %1
  %vtable = load ptr, ptr %0, align 8
  %vfn = getelementptr inbounds ptr, ptr %vtable, i64 3
  %2 = load ptr, ptr %vfn, align 8
  %call = call noundef ptr %2(ptr noundef nonnull align 8 dereferenceable(8) %0, i64 noundef %add, i64 noundef 0, ptr noundef null)
  store ptr %call, ptr %mem, align 8
  %3 = load ptr, ptr %mem, align 8
  call void @llvm.memset.p0.i64(ptr align 8 %3, i8 0, i64 16, i1 false)
  store ptr %3, ptr %x, align 8
  %4 = load ptr, ptr %x, align 8
  %key = getelementptr inbounds %"struct.rocksdb::(anonymous namespace)::Node", ptr %4, i32 0, i32 1
  %arraydecay = getelementptr inbounds [1 x i8], ptr %key, i64 0, i64 0
  %5 = load ptr, ptr %buf.addr, align 8
  store ptr %arraydecay, ptr %5, align 8
  %6 = load ptr, ptr %x, align 8
  ret ptr %6
}