; Function Attrs: mustprogress uwtable
define internal noundef ptr @_ZN7rocksdb12_GLOBAL__N_115HashLinkListRep8AllocateEmPPc(ptr nocapture noundef nonnull readonly align 8 dereferenceable(69) %this, i64 noundef %len, ptr nocapture noundef writeonly %buf) unnamed_addr #3 align 2 {
entry:
  %allocator_ = getelementptr inbounds i8, ptr %this, i64 8
  %0 = load ptr, ptr %allocator_, align 8
  %add = add i64 %len, 16
  %vtable = load ptr, ptr %0, align 8
  %vfn = getelementptr inbounds i8, ptr %vtable, i64 24
  %1 = load ptr, ptr %vfn, align 8
  %call = tail call noundef ptr %1(ptr noundef nonnull align 8 dereferenceable(8) %0, i64 noundef %add, i64 noundef 0, ptr noundef null)
  tail call void @llvm.memset.p0.i64(ptr noundef nonnull align 8 dereferenceable(16) %call, i8 0, i64 16, i1 false)
  %key = getelementptr inbounds i8, ptr %call, i64 8
  store ptr %key, ptr %buf, align 8
  ret ptr %call
}